# SymbolsHelper-Confirmed: 5.9.0 amd64
libQt5WebSockets.so.5 libqt5websockets5 #MINVER#
 Qt_5.0@Qt_5.0 5.6.0
 Qt_5.1@Qt_5.1 5.6.0
 Qt_5.2@Qt_5.2 5.6.0
 Qt_5.3@Qt_5.3 5.6.0
 Qt_5.4@Qt_5.4 5.6.0
 Qt_5.5@Qt_5.5 5.6.0
 Qt_5.6@Qt_5.6 5.6.0
 Qt_5.7@Qt_5.7 5.7.1
 Qt_5.8@Qt_5.8 5.9.0
 Qt_5.9@Qt_5.9 5.9.0
 Qt_5@Qt_5 5.6.0
 Qt_5_PRIVATE_API@Qt_5_PRIVATE_API 5.6.0
 _ZN10QWebSocket11qt_metacallEN11QMetaObject4CallEiPPv@Qt_5 5.6.0
 _ZN10QWebSocket11qt_metacastEPKc@Qt_5 5.6.0
 _ZN10QWebSocket12aboutToCloseEv@Qt_5 5.6.0
 _ZN10QWebSocket12bytesWrittenEx@Qt_5 5.6.0
 _ZN10QWebSocket12disconnectedEv@Qt_5 5.6.0
 _ZN10QWebSocket12setPauseModeE6QFlagsIN15QAbstractSocket9PauseModeEE@Qt_5 5.6.0
 _ZN10QWebSocket12stateChangedEN15QAbstractSocket11SocketStateE@Qt_5 5.6.0
 _ZN10QWebSocket15ignoreSslErrorsERK5QListI9QSslErrorE@Qt_5 5.6.0
 _ZN10QWebSocket15ignoreSslErrorsEv@Qt_5 5.6.0
 _ZN10QWebSocket15sendTextMessageERK7QString@Qt_5 5.6.0
 _ZN10QWebSocket16setMaskGeneratorEPK14QMaskGenerator@Qt_5 5.6.0
 _ZN10QWebSocket16staticMetaObjectE@Qt_5 5.6.0
 _ZN10QWebSocket17sendBinaryMessageERK10QByteArray@Qt_5 5.6.0
 _ZN10QWebSocket17setReadBufferSizeEx@Qt_5 5.6.0
 _ZN10QWebSocket17textFrameReceivedERK7QStringb@Qt_5 5.6.0
 _ZN10QWebSocket19binaryFrameReceivedERK10QByteArrayb@Qt_5 5.6.0
 _ZN10QWebSocket19readChannelFinishedEv@Qt_5 5.6.0
 _ZN10QWebSocket19setSslConfigurationERK17QSslConfiguration@Qt_5 5.6.0
 _ZN10QWebSocket19textMessageReceivedERK7QString@Qt_5 5.6.0
 _ZN10QWebSocket21binaryMessageReceivedERK10QByteArray@Qt_5 5.6.0
 _ZN10QWebSocket27proxyAuthenticationRequiredERK13QNetworkProxyP14QAuthenticator@Qt_5 5.6.0
 _ZN10QWebSocket34preSharedKeyAuthenticationRequiredEP29QSslPreSharedKeyAuthenticator@Qt_5 5.9.0
 _ZN10QWebSocket4openERK15QNetworkRequest@Qt_5 5.6.0
 _ZN10QWebSocket4openERK4QUrl@Qt_5 5.6.0
 _ZN10QWebSocket4pingERK10QByteArray@Qt_5 5.6.0
 _ZN10QWebSocket4pongEyRK10QByteArray@Qt_5 5.6.0
 _ZN10QWebSocket5abortEv@Qt_5 5.6.0
 _ZN10QWebSocket5closeEN18QWebSocketProtocol9CloseCodeERK7QString@Qt_5 5.6.0
 _ZN10QWebSocket5errorEN15QAbstractSocket11SocketErrorE@Qt_5 5.6.0
 _ZN10QWebSocket5flushEv@Qt_5 5.6.0
 _ZN10QWebSocket6resumeEv@Qt_5 5.6.0
 _ZN10QWebSocket8setProxyERK13QNetworkProxy@Qt_5 5.6.0
 _ZN10QWebSocket9connectedEv@Qt_5 5.6.0
 _ZN10QWebSocket9sslErrorsERK5QListI9QSslErrorE@Qt_5 5.6.0
 _ZN10QWebSocketC1EP10QTcpSocketN18QWebSocketProtocol7VersionEP7QObject@Qt_5 5.6.0
 _ZN10QWebSocketC1ERK7QStringN18QWebSocketProtocol7VersionEP7QObject@Qt_5 5.6.0
 _ZN10QWebSocketC2EP10QTcpSocketN18QWebSocketProtocol7VersionEP7QObject@Qt_5 5.6.0
 _ZN10QWebSocketC2ERK7QStringN18QWebSocketProtocol7VersionEP7QObject@Qt_5 5.6.0
 _ZN10QWebSocketD0Ev@Qt_5 5.6.0
 _ZN10QWebSocketD1Ev@Qt_5 5.6.0
 _ZN10QWebSocketD2Ev@Qt_5 5.6.0
 _ZN14QMaskGeneratorC1EP7QObject@Qt_5 5.6.0
 _ZN14QMaskGeneratorC2EP7QObject@Qt_5 5.6.0
 _ZN14QMaskGeneratorD0Ev@Qt_5 5.6.0
 _ZN14QMaskGeneratorD1Ev@Qt_5 5.6.0
 _ZN14QMaskGeneratorD2Ev@Qt_5 5.6.0
 _ZN16QWebSocketServer11acceptErrorEN15QAbstractSocket11SocketErrorE@Qt_5 5.6.0
 _ZN16QWebSocketServer11qt_metacallEN11QMetaObject4CallEiPPv@Qt_5 5.6.0
 _ZN16QWebSocketServer11qt_metacastEPKc@Qt_5 5.6.0
 _ZN16QWebSocketServer11serverErrorEN18QWebSocketProtocol9CloseCodeE@Qt_5 5.6.0
 _ZN16QWebSocketServer13newConnectionEv@Qt_5 5.6.0
 _ZN16QWebSocketServer13setServerNameERK7QString@Qt_5 5.6.0
 _ZN16QWebSocketServer14pauseAcceptingEv@Qt_5 5.6.0
 _ZN16QWebSocketServer15peerVerifyErrorERK9QSslError@Qt_5 5.6.0
 _ZN16QWebSocketServer15resumeAcceptingEv@Qt_5 5.6.0
 _ZN16QWebSocketServer16staticMetaObjectE@Qt_5 5.6.0
 _ZN16QWebSocketServer19setSocketDescriptorEi@Qt_5 5.6.0
 _ZN16QWebSocketServer19setSslConfigurationERK17QSslConfiguration@Qt_5 5.6.0
 _ZN16QWebSocketServer21nextPendingConnectionEv@Qt_5 5.6.0
 _ZN16QWebSocketServer24setMaxPendingConnectionsEi@Qt_5 5.6.0
 _ZN16QWebSocketServer28originAuthenticationRequiredEP27QWebSocketCorsAuthenticator@Qt_5 5.6.0
 _ZN16QWebSocketServer34preSharedKeyAuthenticationRequiredEP29QSslPreSharedKeyAuthenticator@Qt_5 5.9.0
 _ZN16QWebSocketServer5closeEv@Qt_5 5.6.0
 _ZN16QWebSocketServer6closedEv@Qt_5 5.6.0
 _ZN16QWebSocketServer6listenERK12QHostAddresst@Qt_5 5.6.0
 _ZN16QWebSocketServer8setProxyERK13QNetworkProxy@Qt_5 5.6.0
 _ZN16QWebSocketServer9sslErrorsERK5QListI9QSslErrorE@Qt_5 5.6.0
 _ZN16QWebSocketServerC1ERK7QStringNS_7SslModeEP7QObject@Qt_5 5.6.0
 _ZN16QWebSocketServerC2ERK7QStringNS_7SslModeEP7QObject@Qt_5 5.6.0
 _ZN16QWebSocketServerD0Ev@Qt_5 5.6.0
 _ZN16QWebSocketServerD1Ev@Qt_5 5.6.0
 _ZN16QWebSocketServerD2Ev@Qt_5 5.6.0
 _ZN27QWebSocketCorsAuthenticator10setAllowedEb@Qt_5 5.6.0
 _ZN27QWebSocketCorsAuthenticator4swapERS_@Qt_5 5.6.0
 _ZN27QWebSocketCorsAuthenticatorC1EOS_@Qt_5 5.6.0
 _ZN27QWebSocketCorsAuthenticatorC1ERK7QString@Qt_5 5.6.0
 _ZN27QWebSocketCorsAuthenticatorC1ERKS_@Qt_5 5.6.0
 _ZN27QWebSocketCorsAuthenticatorC2EOS_@Qt_5 5.6.0
 _ZN27QWebSocketCorsAuthenticatorC2ERK7QString@Qt_5 5.6.0
 _ZN27QWebSocketCorsAuthenticatorC2ERKS_@Qt_5 5.6.0
 _ZN27QWebSocketCorsAuthenticatorD1Ev@Qt_5 5.6.0
 _ZN27QWebSocketCorsAuthenticatorD2Ev@Qt_5 5.6.0
 _ZN27QWebSocketCorsAuthenticatoraSEOS_@Qt_5 5.6.0
 _ZN27QWebSocketCorsAuthenticatoraSERKS_@Qt_5 5.6.0
 _ZNK10QWebSocket10metaObjectEv@Qt_5 5.6.0
 _ZNK10QWebSocket10requestUrlEv@Qt_5 5.6.0
 _ZNK10QWebSocket11closeReasonEv@Qt_5 5.6.0
 _ZNK10QWebSocket11errorStringEv@Qt_5 5.6.0
 _ZNK10QWebSocket11peerAddressEv@Qt_5 5.6.0
 _ZNK10QWebSocket12localAddressEv@Qt_5 5.6.0
 _ZNK10QWebSocket12resourceNameEv@Qt_5 5.6.0
 _ZNK10QWebSocket13maskGeneratorEv@Qt_5 5.6.0
 _ZNK10QWebSocket14readBufferSizeEv@Qt_5 5.6.0
 _ZNK10QWebSocket16sslConfigurationEv@Qt_5 5.6.0
 _ZNK10QWebSocket5errorEv@Qt_5 5.6.0
 _ZNK10QWebSocket5proxyEv@Qt_5 5.6.0
 _ZNK10QWebSocket5stateEv@Qt_5 5.6.0
 _ZNK10QWebSocket6originEv@Qt_5 5.6.0
 _ZNK10QWebSocket7isValidEv@Qt_5 5.6.0
 _ZNK10QWebSocket7requestEv@Qt_5 5.6.0
 _ZNK10QWebSocket7versionEv@Qt_5 5.6.0
 _ZNK10QWebSocket8peerNameEv@Qt_5 5.6.0
 _ZNK10QWebSocket8peerPortEv@Qt_5 5.6.0
 _ZNK10QWebSocket9closeCodeEv@Qt_5 5.6.0
 _ZNK10QWebSocket9localPortEv@Qt_5 5.6.0
 _ZNK10QWebSocket9pauseModeEv@Qt_5 5.6.0
 _ZNK16QWebSocketServer10metaObjectEv@Qt_5 5.6.0
 _ZNK16QWebSocketServer10secureModeEv@Qt_5 5.6.0
 _ZNK16QWebSocketServer10serverNameEv@Qt_5 5.6.0
 _ZNK16QWebSocketServer10serverPortEv@Qt_5 5.6.0
 _ZNK16QWebSocketServer11errorStringEv@Qt_5 5.6.0
 _ZNK16QWebSocketServer11isListeningEv@Qt_5 5.6.0
 _ZNK16QWebSocketServer13serverAddressEv@Qt_5 5.6.0
 _ZNK16QWebSocketServer16handleConnectionEP10QTcpSocket@Qt_5 5.9.0
 _ZNK16QWebSocketServer16socketDescriptorEv@Qt_5 5.6.0
 _ZNK16QWebSocketServer16sslConfigurationEv@Qt_5 5.6.0
 _ZNK16QWebSocketServer17supportedVersionsEv@Qt_5 5.6.0
 _ZNK16QWebSocketServer21hasPendingConnectionsEv@Qt_5 5.6.0
 _ZNK16QWebSocketServer21maxPendingConnectionsEv@Qt_5 5.6.0
 _ZNK16QWebSocketServer5errorEv@Qt_5 5.6.0
 _ZNK16QWebSocketServer5proxyEv@Qt_5 5.6.0
 _ZNK16QWebSocketServer9serverUrlEv@Qt_5 5.6.0
 _ZNK27QWebSocketCorsAuthenticator6originEv@Qt_5 5.6.0
 _ZNK27QWebSocketCorsAuthenticator7allowedEv@Qt_5 5.6.0
 _ZTI10QWebSocket@Qt_5 5.6.0
 _ZTI14QMaskGenerator@Qt_5 5.6.0
 _ZTI16QWebSocketServer@Qt_5 5.6.0
 _ZTS10QWebSocket@Qt_5 5.6.0
 _ZTS14QMaskGenerator@Qt_5 5.6.0
 _ZTS16QWebSocketServer@Qt_5 5.6.0
 _ZTV10QWebSocket@Qt_5 5.6.0
 _ZTV14QMaskGenerator@Qt_5 5.6.0
 _ZTV16QWebSocketServer@Qt_5 5.6.0
